; ModuleID = '27/55.c'
source_filename = "27/55.c"
target datalayout = "e-m:e-p270:32:32-p271:32:32-p272:64:64-i64:64-f80:128-n8:16:32:64-S128"
target triple = "x86_64-pc-linux-gnu"

@.str = private unnamed_addr constant [4 x i8] c"%d\0A\00", align 1
@.str.1 = private unnamed_addr constant [11 x i8] c"%lf%lf%lf\0A\00", align 1
@.str.2 = private unnamed_addr constant [19 x i8] c"x1=%.5lf;x2=%.5lf\0A\00", align 1
@.str.3 = private unnamed_addr constant [13 x i8] c"x1=x2=%.5lf\0A\00", align 1
@.str.4 = private unnamed_addr constant [33 x i8] c"x1=%.5lf+%.5lfi;x2=%.5lf-%.5lfi\0A\00", align 1

; Function Attrs: noinline nounwind uwtable
define dso_local void @main() #0 {
  %1 = alloca i32, align 4
  %2 = alloca i32, align 4
  %3 = alloca [100 x double], align 16
  %4 = alloca [100 x double], align 16
  %5 = alloca [100 x double], align 16
  %6 = alloca [100 x double], align 16
  %7 = alloca [100 x double], align 16
  %8 = alloca [100 x double], align 16
  %9 = alloca [100 x double], align 16
  %10 = alloca [100 x double], align 16
  %11 = alloca i8, align 1
  store i8 105, i8* %11, align 1
  %12 = call i32 (i8*, ...) @__isoc99_scanf(i8* getelementptr inbounds ([4 x i8], [4 x i8]* @.str, i64 0, i64 0), i32* %2)
  store i32 1, i32* %1, align 4
  br label %13

13:                                               ; preds = %28, %0
  %14 = load i32, i32* %1, align 4
  %15 = load i32, i32* %2, align 4
  %16 = icmp sle i32 %14, %15
  br i1 %16, label %17, label %31

17:                                               ; preds = %13
  %18 = load i32, i32* %1, align 4
  %19 = sext i32 %18 to i64
  %20 = getelementptr inbounds [100 x double], [100 x double]* %3, i64 0, i64 %19
  %21 = load i32, i32* %1, align 4
  %22 = sext i32 %21 to i64
  %23 = getelementptr inbounds [100 x double], [100 x double]* %4, i64 0, i64 %22
  %24 = load i32, i32* %1, align 4
  %25 = sext i32 %24 to i64
  %26 = getelementptr inbounds [100 x double], [100 x double]* %5, i64 0, i64 %25
  %27 = call i32 (i8*, ...) @__isoc99_scanf(i8* getelementptr inbounds ([11 x i8], [11 x i8]* @.str.1, i64 0, i64 0), double* %20, double* %23, double* %26)
  br label %28

28:                                               ; preds = %17
  %29 = load i32, i32* %1, align 4
  %30 = add nsw i32 %29, 1
  store i32 %30, i32* %1, align 4
  br label %13

31:                                               ; preds = %13
  store i32 1, i32* %1, align 4
  br label %32

32:                                               ; preds = %308, %31
  %33 = load i32, i32* %1, align 4
  %34 = load i32, i32* %2, align 4
  %35 = icmp sle i32 %33, %34
  br i1 %35, label %36, label %311

36:                                               ; preds = %32
  %37 = load i32, i32* %1, align 4
  %38 = sext i32 %37 to i64
  %39 = getelementptr inbounds [100 x double], [100 x double]* %4, i64 0, i64 %38
  %40 = load double, double* %39, align 8
  %41 = load i32, i32* %1, align 4
  %42 = sext i32 %41 to i64
  %43 = getelementptr inbounds [100 x double], [100 x double]* %4, i64 0, i64 %42
  %44 = load double, double* %43, align 8
  %45 = fmul double %40, %44
  %46 = load i32, i32* %1, align 4
  %47 = sext i32 %46 to i64
  %48 = getelementptr inbounds [100 x double], [100 x double]* %3, i64 0, i64 %47
  %49 = load double, double* %48, align 8
  %50 = fmul double 4.000000e+00, %49
  %51 = load i32, i32* %1, align 4
  %52 = sext i32 %51 to i64
  %53 = getelementptr inbounds [100 x double], [100 x double]* %5, i64 0, i64 %52
  %54 = load double, double* %53, align 8
  %55 = fmul double %50, %54
  %56 = fsub double %45, %55
  %57 = load i32, i32* %1, align 4
  %58 = sext i32 %57 to i64
  %59 = getelementptr inbounds [100 x double], [100 x double]* %10, i64 0, i64 %58
  store double %56, double* %59, align 8
  %60 = load i32, i32* %1, align 4
  %61 = sext i32 %60 to i64
  %62 = getelementptr inbounds [100 x double], [100 x double]* %4, i64 0, i64 %61
  %63 = load double, double* %62, align 8
  %64 = fcmp une double %63, 0.000000e+00
  br i1 %64, label %65, label %203

65:                                               ; preds = %36
  %66 = load i32, i32* %1, align 4
  %67 = sext i32 %66 to i64
  %68 = getelementptr inbounds [100 x double], [100 x double]* %10, i64 0, i64 %67
  %69 = load double, double* %68, align 8
  %70 = fcmp oge double %69, 0.000000e+00
  br i1 %70, label %71, label %155

71:                                               ; preds = %65
  %72 = load i32, i32* %1, align 4
  %73 = sext i32 %72 to i64
  %74 = getelementptr inbounds [100 x double], [100 x double]* %10, i64 0, i64 %73
  %75 = load double, double* %74, align 8
  %76 = fcmp ogt double %75, 0.000000e+00
  br i1 %76, label %77, label %127

77:                                               ; preds = %71
  %78 = load i32, i32* %1, align 4
  %79 = sext i32 %78 to i64
  %80 = getelementptr inbounds [100 x double], [100 x double]* %4, i64 0, i64 %79
  %81 = load double, double* %80, align 8
  %82 = fneg double %81
  %83 = load i32, i32* %1, align 4
  %84 = sext i32 %83 to i64
  %85 = getelementptr inbounds [100 x double], [100 x double]* %10, i64 0, i64 %84
  %86 = load double, double* %85, align 8
  %87 = call double @sqrt(double %86) #3
  %88 = fadd double %82, %87
  %89 = load i32, i32* %1, align 4
  %90 = sext i32 %89 to i64
  %91 = getelementptr inbounds [100 x double], [100 x double]* %3, i64 0, i64 %90
  %92 = load double, double* %91, align 8
  %93 = fmul double 2.000000e+00, %92
  %94 = fdiv double %88, %93
  %95 = load i32, i32* %1, align 4
  %96 = sext i32 %95 to i64
  %97 = getelementptr inbounds [100 x double], [100 x double]* %6, i64 0, i64 %96
  store double %94, double* %97, align 8
  %98 = load i32, i32* %1, align 4
  %99 = sext i32 %98 to i64
  %100 = getelementptr inbounds [100 x double], [100 x double]* %4, i64 0, i64 %99
  %101 = load double, double* %100, align 8
  %102 = fneg double %101
  %103 = load i32, i32* %1, align 4
  %104 = sext i32 %103 to i64
  %105 = getelementptr inbounds [100 x double], [100 x double]* %10, i64 0, i64 %104
  %106 = load double, double* %105, align 8
  %107 = call double @sqrt(double %106) #3
  %108 = fsub double %102, %107
  %109 = load i32, i32* %1, align 4
  %110 = sext i32 %109 to i64
  %111 = getelementptr inbounds [100 x double], [100 x double]* %3, i64 0, i64 %110
  %112 = load double, double* %111, align 8
  %113 = fmul double 2.000000e+00, %112
  %114 = fdiv double %108, %113
  %115 = load i32, i32* %1, align 4
  %116 = sext i32 %115 to i64
  %117 = getelementptr inbounds [100 x double], [100 x double]* %7, i64 0, i64 %116
  store double %114, double* %117, align 8
  %118 = load i32, i32* %1, align 4
  %119 = sext i32 %118 to i64
  %120 = getelementptr inbounds [100 x double], [100 x double]* %6, i64 0, i64 %119
  %121 = load double, double* %120, align 8
  %122 = load i32, i32* %1, align 4
  %123 = sext i32 %122 to i64
  %124 = getelementptr inbounds [100 x double], [100 x double]* %7, i64 0, i64 %123
  %125 = load double, double* %124, align 8
  %126 = call i32 (i8*, ...) @printf(i8* getelementptr inbounds ([19 x i8], [19 x i8]* @.str.2, i64 0, i64 0), double %121, double %125)
  br label %154

127:                                              ; preds = %71
  %128 = load i32, i32* %1, align 4
  %129 = sext i32 %128 to i64
  %130 = getelementptr inbounds [100 x double], [100 x double]* %4, i64 0, i64 %129
  %131 = load double, double* %130, align 8
  %132 = fneg double %131
  %133 = load i32, i32* %1, align 4
  %134 = sext i32 %133 to i64
  %135 = getelementptr inbounds [100 x double], [100 x double]* %3, i64 0, i64 %134
  %136 = load double, double* %135, align 8
  %137 = fmul double 2.000000e+00, %136
  %138 = fdiv double %132, %137
  %139 = load i32, i32* %1, align 4
  %140 = sext i32 %139 to i64
  %141 = getelementptr inbounds [100 x double], [100 x double]* %7, i64 0, i64 %140
  store double %138, double* %141, align 8
  %142 = load i32, i32* %1, align 4
  %143 = sext i32 %142 to i64
  %144 = getelementptr inbounds [100 x double], [100 x double]* %6, i64 0, i64 %143
  store double %138, double* %144, align 8
  %145 = load i32, i32* %1, align 4
  %146 = sext i32 %145 to i64
  %147 = getelementptr inbounds [100 x double], [100 x double]* %6, i64 0, i64 %146
  %148 = load double, double* %147, align 8
  %149 = load i32, i32* %1, align 4
  %150 = sext i32 %149 to i64
  %151 = getelementptr inbounds [100 x double], [100 x double]* %7, i64 0, i64 %150
  %152 = load double, double* %151, align 8
  %153 = call i32 (i8*, ...) @printf(i8* getelementptr inbounds ([13 x i8], [13 x i8]* @.str.3, i64 0, i64 0), double %148, double %152)
  br label %154

154:                                              ; preds = %127, %77
  br label %202

155:                                              ; preds = %65
  %156 = load i32, i32* %1, align 4
  %157 = sext i32 %156 to i64
  %158 = getelementptr inbounds [100 x double], [100 x double]* %4, i64 0, i64 %157
  %159 = load double, double* %158, align 8
  %160 = fneg double %159
  %161 = load i32, i32* %1, align 4
  %162 = sext i32 %161 to i64
  %163 = getelementptr inbounds [100 x double], [100 x double]* %3, i64 0, i64 %162
  %164 = load double, double* %163, align 8
  %165 = fmul double 2.000000e+00, %164
  %166 = fdiv double %160, %165
  %167 = load i32, i32* %1, align 4
  %168 = sext i32 %167 to i64
  %169 = getelementptr inbounds [100 x double], [100 x double]* %8, i64 0, i64 %168
  store double %166, double* %169, align 8
  %170 = load i32, i32* %1, align 4
  %171 = sext i32 %170 to i64
  %172 = getelementptr inbounds [100 x double], [100 x double]* %10, i64 0, i64 %171
  %173 = load double, double* %172, align 8
  %174 = fneg double %173
  %175 = call double @sqrt(double %174) #3
  %176 = load i32, i32* %1, align 4
  %177 = sext i32 %176 to i64
  %178 = getelementptr inbounds [100 x double], [100 x double]* %3, i64 0, i64 %177
  %179 = load double, double* %178, align 8
  %180 = fmul double 2.000000e+00, %179
  %181 = fdiv double %175, %180
  %182 = load i32, i32* %1, align 4
  %183 = sext i32 %182 to i64
  %184 = getelementptr inbounds [100 x double], [100 x double]* %9, i64 0, i64 %183
  store double %181, double* %184, align 8
  %185 = load i32, i32* %1, align 4
  %186 = sext i32 %185 to i64
  %187 = getelementptr inbounds [100 x double], [100 x double]* %8, i64 0, i64 %186
  %188 = load double, double* %187, align 8
  %189 = load i32, i32* %1, align 4
  %190 = sext i32 %189 to i64
  %191 = getelementptr inbounds [100 x double], [100 x double]* %9, i64 0, i64 %190
  %192 = load double, double* %191, align 8
  %193 = load i32, i32* %1, align 4
  %194 = sext i32 %193 to i64
  %195 = getelementptr inbounds [100 x double], [100 x double]* %8, i64 0, i64 %194
  %196 = load double, double* %195, align 8
  %197 = load i32, i32* %1, align 4
  %198 = sext i32 %197 to i64
  %199 = getelementptr inbounds [100 x double], [100 x double]* %9, i64 0, i64 %198
  %200 = load double, double* %199, align 8
  %201 = call i32 (i8*, ...) @printf(i8* getelementptr inbounds ([33 x i8], [33 x i8]* @.str.4, i64 0, i64 0), double %188, double %192, double %196, double %200)
  br label %202

202:                                              ; preds = %155, %154
  br label %307

203:                                              ; preds = %36
  %204 = load i32, i32* %1, align 4
  %205 = sext i32 %204 to i64
  %206 = getelementptr inbounds [100 x double], [100 x double]* %10, i64 0, i64 %205
  %207 = load double, double* %206, align 8
  %208 = fcmp oge double %207, 0.000000e+00
  br i1 %208, label %209, label %270

209:                                              ; preds = %203
  %210 = load i32, i32* %1, align 4
  %211 = sext i32 %210 to i64
  %212 = getelementptr inbounds [100 x double], [100 x double]* %10, i64 0, i64 %211
  %213 = load double, double* %212, align 8
  %214 = fcmp ogt double %213, 0.000000e+00
  br i1 %214, label %215, label %253

215:                                              ; preds = %209
  %216 = load i32, i32* %1, align 4
  %217 = sext i32 %216 to i64
  %218 = getelementptr inbounds [100 x double], [100 x double]* %10, i64 0, i64 %217
  %219 = load double, double* %218, align 8
  %220 = call double @sqrt(double %219) #3
  %221 = load i32, i32* %1, align 4
  %222 = sext i32 %221 to i64
  %223 = getelementptr inbounds [100 x double], [100 x double]* %3, i64 0, i64 %222
  %224 = load double, double* %223, align 8
  %225 = fmul double 2.000000e+00, %224
  %226 = fdiv double %220, %225
  %227 = load i32, i32* %1, align 4
  %228 = sext i32 %227 to i64
  %229 = getelementptr inbounds [100 x double], [100 x double]* %6, i64 0, i64 %228
  store double %226, double* %229, align 8
  %230 = load i32, i32* %1, align 4
  %231 = sext i32 %230 to i64
  %232 = getelementptr inbounds [100 x double], [100 x double]* %10, i64 0, i64 %231
  %233 = load double, double* %232, align 8
  %234 = call double @sqrt(double %233) #3
  %235 = load i32, i32* %1, align 4
  %236 = sext i32 %235 to i64
  %237 = getelementptr inbounds [100 x double], [100 x double]* %3, i64 0, i64 %236
  %238 = load double, double* %237, align 8
  %239 = fmul double 2.000000e+00, %238
  %240 = fdiv double %234, %239
  %241 = load i32, i32* %1, align 4
  %242 = sext i32 %241 to i64
  %243 = getelementptr inbounds [100 x double], [100 x double]* %7, i64 0, i64 %242
  store double %240, double* %243, align 8
  %244 = load i32, i32* %1, align 4
  %245 = sext i32 %244 to i64
  %246 = getelementptr inbounds [100 x double], [100 x double]* %6, i64 0, i64 %245
  %247 = load double, double* %246, align 8
  %248 = load i32, i32* %1, align 4
  %249 = sext i32 %248 to i64
  %250 = getelementptr inbounds [100 x double], [100 x double]* %7, i64 0, i64 %249
  %251 = load double, double* %250, align 8
  %252 = call i32 (i8*, ...) @printf(i8* getelementptr inbounds ([19 x i8], [19 x i8]* @.str.2, i64 0, i64 0), double %247, double %251)
  br label %269

253:                                              ; preds = %209
  %254 = load i32, i32* %1, align 4
  %255 = sext i32 %254 to i64
  %256 = getelementptr inbounds [100 x double], [100 x double]* %6, i64 0, i64 %255
  store double 0.000000e+00, double* %256, align 8
  %257 = load i32, i32* %1, align 4
  %258 = sext i32 %257 to i64
  %259 = getelementptr inbounds [100 x double], [100 x double]* %7, i64 0, i64 %258
  store double 0.000000e+00, double* %259, align 8
  %260 = load i32, i32* %1, align 4
  %261 = sext i32 %260 to i64
  %262 = getelementptr inbounds [100 x double], [100 x double]* %6, i64 0, i64 %261
  %263 = load double, double* %262, align 8
  %264 = load i32, i32* %1, align 4
  %265 = sext i32 %264 to i64
  %266 = getelementptr inbounds [100 x double], [100 x double]* %7, i64 0, i64 %265
  %267 = load double, double* %266, align 8
  %268 = call i32 (i8*, ...) @printf(i8* getelementptr inbounds ([13 x i8], [13 x i8]* @.str.3, i64 0, i64 0), double %263, double %267)
  br label %269

269:                                              ; preds = %253, %215
  br label %306

270:                                              ; preds = %203
  %271 = load i32, i32* %1, align 4
  %272 = sext i32 %271 to i64
  %273 = getelementptr inbounds [100 x double], [100 x double]* %10, i64 0, i64 %272
  %274 = load double, double* %273, align 8
  %275 = fneg double %274
  %276 = call double @sqrt(double %275) #3
  %277 = load i32, i32* %1, align 4
  %278 = sext i32 %277 to i64
  %279 = getelementptr inbounds [100 x double], [100 x double]* %3, i64 0, i64 %278
  %280 = load double, double* %279, align 8
  %281 = fmul double 2.000000e+00, %280
  %282 = fdiv double %276, %281
  %283 = load i32, i32* %1, align 4
  %284 = sext i32 %283 to i64
  %285 = getelementptr inbounds [100 x double], [100 x double]* %9, i64 0, i64 %284
  store double %282, double* %285, align 8
  %286 = load i32, i32* %1, align 4
  %287 = sext i32 %286 to i64
  %288 = getelementptr inbounds [100 x double], [100 x double]* %8, i64 0, i64 %287
  store double 0.000000e+00, double* %288, align 8
  %289 = load i32, i32* %1, align 4
  %290 = sext i32 %289 to i64
  %291 = getelementptr inbounds [100 x double], [100 x double]* %8, i64 0, i64 %290
  %292 = load double, double* %291, align 8
  %293 = load i32, i32* %1, align 4
  %294 = sext i32 %293 to i64
  %295 = getelementptr inbounds [100 x double], [100 x double]* %9, i64 0, i64 %294
  %296 = load double, double* %295, align 8
  %297 = load i32, i32* %1, align 4
  %298 = sext i32 %297 to i64
  %299 = getelementptr inbounds [100 x double], [100 x double]* %8, i64 0, i64 %298
  %300 = load double, double* %299, align 8
  %301 = load i32, i32* %1, align 4
  %302 = sext i32 %301 to i64
  %303 = getelementptr inbounds [100 x double], [100 x double]* %9, i64 0, i64 %302
  %304 = load double, double* %303, align 8
  %305 = call i32 (i8*, ...) @printf(i8* getelementptr inbounds ([33 x i8], [33 x i8]* @.str.4, i64 0, i64 0), double %292, double %296, double %300, double %304)
  br label %306

306:                                              ; preds = %270, %269
  br label %307

307:                                              ; preds = %306, %202
  br label %308

308:                                              ; preds = %307
  %309 = load i32, i32* %1, align 4
  %310 = add nsw i32 %309, 1
  store i32 %310, i32* %1, align 4
  br label %32

311:                                              ; preds = %32
  ret void
}

declare dso_local i32 @__isoc99_scanf(i8*, ...) #1

; Function Attrs: nounwind
declare dso_local double @sqrt(double) #2

declare dso_local i32 @printf(i8*, ...) #1


!llvm.module.flags = !{!0}
!llvm.ident = !{!1}

!0 = !{i32 1, !"wchar_size", i32 4}
!1 = !{!"clang version 10.0.0-4ubuntu1 "}
